target datalayout = "e-m:e-p270:32:32-p271:32:32-p272:64:64-i64:64-i128:128-f80:128-n8:16:32:64-S128"
target triple = "x86_64-pc-linux-gnu"

; Function Attrs: nounwind uwtable
define internal i32 @ssd_int8_vs_int16_c(ptr noundef %0, ptr noundef %1, i64 noundef %2) #1 {
  %4 = alloca ptr, align 8
  %5 = alloca ptr, align 8
  %6 = alloca i64, align 8
  %7 = alloca i32, align 4
  %8 = alloca i64, align 8
  store ptr %0, ptr %4, align 8, !tbaa !101
  store ptr %1, ptr %5, align 8, !tbaa !116
  store i64 %2, ptr %6, align 8, !tbaa !117
  call void @llvm.lifetime.start.p0(i64 4, ptr %7) #10
  store i32 0, ptr %7, align 4, !tbaa !34
  call void @llvm.lifetime.start.p0(i64 8, ptr %8) #10
  store i64 0, ptr %8, align 8, !tbaa !117
  br label %9

9:                                                ; preds = %40, %3
  %10 = load i64, ptr %8, align 8, !tbaa !117
  %11 = load i64, ptr %6, align 8, !tbaa !117
  %12 = icmp slt i64 %10, %11
  br i1 %12, label %14, label %13

13:                                               ; preds = %9
  call void @llvm.lifetime.end.p0(i64 8, ptr %8) #10
  br label %43

14:                                               ; preds = %9
  %15 = load ptr, ptr %4, align 8, !tbaa !101
  %16 = load i64, ptr %8, align 8, !tbaa !117
  %17 = getelementptr inbounds i8, ptr %15, i64 %16
  %18 = load i8, ptr %17, align 1, !tbaa !114
  %19 = sext i8 %18 to i32
  %20 = load ptr, ptr %5, align 8, !tbaa !116
  %21 = load i64, ptr %8, align 8, !tbaa !117
  %22 = getelementptr inbounds i16, ptr %20, i64 %21
  %23 = load i16, ptr %22, align 2, !tbaa !118
  %24 = sext i16 %23 to i32
  %25 = sub nsw i32 %19, %24
  %26 = load ptr, ptr %4, align 8, !tbaa !101
  %27 = load i64, ptr %8, align 8, !tbaa !117
  %28 = getelementptr inbounds i8, ptr %26, i64 %27
  %29 = load i8, ptr %28, align 1, !tbaa !114
  %30 = sext i8 %29 to i32
  %31 = load ptr, ptr %5, align 8, !tbaa !116
  %32 = load i64, ptr %8, align 8, !tbaa !117
  %33 = getelementptr inbounds i16, ptr %31, i64 %32
  %34 = load i16, ptr %33, align 2, !tbaa !118
  %35 = sext i16 %34 to i32
  %36 = sub nsw i32 %30, %35
  %37 = mul nsw i32 %25, %36
  %38 = load i32, ptr %7, align 4, !tbaa !34
  %39 = add nsw i32 %38, %37
  store i32 %39, ptr %7, align 4, !tbaa !34
  br label %40

40:                                               ; preds = %14
  %41 = load i64, ptr %8, align 8, !tbaa !117
  %42 = add nsw i64 %41, 1
  store i64 %42, ptr %8, align 8, !tbaa !117
  br label %9, !llvm.loop !119

43:                                               ; preds = %13
  %44 = load i32, ptr %7, align 4, !tbaa !34
  call void @llvm.lifetime.end.p0(i64 4, ptr %7) #10
  ret i32 %44
}