; Function Attrs: nofree norecurse nosync nounwind memory(argmem: read) uwtable
define internal i32 @ssd_int8_vs_int16_c(ptr noundef readonly captures(none) %0, ptr noundef readonly captures(none) %1, i64 noundef %2) #4 {
  %4 = icmp sgt i64 %2, 0
  br i1 %4, label %.lr.ph, label %._crit_edge

._crit_edge:                                      ; preds = %.lr.ph, %3
  %.012.lcssa = phi i32 [ 0, %3 ], [ %13, %.lr.ph ]
  ret i32 %.012.lcssa

.lr.ph:                                           ; preds = %3, %.lr.ph
  %.014 = phi i64 [ %14, %.lr.ph ], [ 0, %3 ]
  %.01213 = phi i32 [ %13, %.lr.ph ], [ 0, %3 ]
  %5 = getelementptr inbounds nuw i8, ptr %0, i64 %.014
  %6 = load i8, ptr %5, align 1, !tbaa !99
  %7 = sext i8 %6 to i32
  %8 = getelementptr inbounds nuw i16, ptr %1, i64 %.014
  %9 = load i16, ptr %8, align 2, !tbaa !138
  %10 = sext i16 %9 to i32
  %11 = sub nsw i32 %7, %10
  %12 = mul nsw i32 %11, %11
  %13 = add nuw nsw i32 %12, %.01213
  %14 = add nuw nsw i64 %.014, 1
  %exitcond.not = icmp eq i64 %14, %2
  br i1 %exitcond.not, label %._crit_edge, label %.lr.ph, !llvm.loop !156
}